target datalayout = "e-m:e-p270:32:32-p271:32:32-p272:64:64-i64:64-i128:128-f80:128-n8:16:32:64-S128"
target triple = "x86_64-pc-linux-gnu"

%"class.std::__cxx11::basic_string" = type { %"struct.std::__cxx11::basic_string<char>::_Alloc_hider", i64, %union.anon }
%"struct.std::__cxx11::basic_string<char>::_Alloc_hider" = type { ptr }
%union.anon = type { i64, [8 x i8] }

; Function Attrs: mustprogress nounwind uwtable
define available_externally noundef ptr @_ZNKSt7__cxx1112basic_stringIcSt11char_traitsIcESaIcEE7_M_dataEv(ptr noundef nonnull align 8 dereferenceable(32) %0) #4 align 2 {
  %2 = alloca ptr, align 8
  store ptr %0, ptr %2, align 8, !tbaa !55
  %3 = load ptr, ptr %2, align 8
  %4 = getelementptr inbounds nuw %"class.std::__cxx11::basic_string", ptr %3, i32 0, i32 0
  %5 = getelementptr inbounds nuw %"struct.std::__cxx11::basic_string<char>::_Alloc_hider", ptr %4, i32 0, i32 0
  %6 = load ptr, ptr %5, align 8, !tbaa !104
  ret ptr %6
}

; Function Attrs: inlinehint mustprogress nounwind uwtable
define internal noundef i32 @_ZN6google8protobuf2io12_GLOBAL__N_110DigitValueEc(i8 noundef signext %0) #7 {
  %2 = alloca i32, align 4
  %3 = alloca i8, align 1
  store i8 %0, ptr %3, align 1, !tbaa !53
  %4 = load i8, ptr %3, align 1, !tbaa !53
  %5 = sext i8 %4 to i32
  %6 = icmp sle i32 48, %5
  br i1 %6, label %7, label %15

7:                                                ; preds = %1
  %8 = load i8, ptr %3, align 1, !tbaa !53
  %9 = sext i8 %8 to i32
  %10 = icmp sle i32 %9, 57
  br i1 %10, label %11, label %15

11:                                               ; preds = %7
  %12 = load i8, ptr %3, align 1, !tbaa !53
  %13 = sext i8 %12 to i32
  %14 = sub nsw i32 %13, 48
  store i32 %14, ptr %2, align 4
  br label %42

15:                                               ; preds = %7, %1
  %16 = load i8, ptr %3, align 1, !tbaa !53
  %17 = sext i8 %16 to i32
  %18 = icmp sle i32 97, %17
  br i1 %18, label %19, label %28

19:                                               ; preds = %15
  %20 = load i8, ptr %3, align 1, !tbaa !53
  %21 = sext i8 %20 to i32
  %22 = icmp sle i32 %21, 122
  br i1 %22, label %23, label %28

23:                                               ; preds = %19
  %24 = load i8, ptr %3, align 1, !tbaa !53
  %25 = sext i8 %24 to i32
  %26 = sub nsw i32 %25, 97
  %27 = add nsw i32 %26, 10
  store i32 %27, ptr %2, align 4
  br label %42

28:                                               ; preds = %19, %15
  %29 = load i8, ptr %3, align 1, !tbaa !53
  %30 = sext i8 %29 to i32
  %31 = icmp sle i32 65, %30
  br i1 %31, label %32, label %41

32:                                               ; preds = %28
  %33 = load i8, ptr %3, align 1, !tbaa !53
  %34 = sext i8 %33 to i32
  %35 = icmp sle i32 %34, 90
  br i1 %35, label %36, label %41

36:                                               ; preds = %32
  %37 = load i8, ptr %3, align 1, !tbaa !53
  %38 = sext i8 %37 to i32
  %39 = sub nsw i32 %38, 65
  %40 = add nsw i32 %39, 10
  store i32 %40, ptr %2, align 4
  br label %42

41:                                               ; preds = %32, %28
  store i32 -1, ptr %2, align 4
  br label %42

42:                                               ; preds = %41, %36, %23, %11
  %43 = load i32, ptr %2, align 4
  ret i32 %43
}

; Function Attrs: mustprogress nounwind uwtable
define available_externally noundef ptr @_ZNKSt7__cxx1112basic_stringIcSt11char_traitsIcESaIcEE5c_strEv(ptr noundef nonnull align 8 dereferenceable(32) %0) #4 align 2 {
  %2 = alloca ptr, align 8
  store ptr %0, ptr %2, align 8, !tbaa !55
  %3 = load ptr, ptr %2, align 8
  %4 = call noundef ptr @_ZNKSt7__cxx1112basic_stringIcSt11char_traitsIcESaIcEE7_M_dataEv(ptr noundef nonnull align 8 dereferenceable(32) %3)
  ret ptr %4
}

; Function Attrs: mustprogress uwtable
define hidden noundef zeroext i1 @_ZN6google8protobuf2io9Tokenizer12ParseIntegerERKNSt7__cxx1112basic_stringIcSt11char_traitsIcESaIcEEEmPm(ptr noundef nonnull align 8 dereferenceable(32) %0, i64 noundef %1, ptr noundef %2) #6 align 2 {
  %4 = alloca i1, align 1
  %5 = alloca ptr, align 8
  %6 = alloca i64, align 8
  %7 = alloca ptr, align 8
  %8 = alloca ptr, align 8
  %9 = alloca i32, align 4
  %10 = alloca i64, align 8
  %11 = alloca i32, align 4
  %12 = alloca i32, align 4
  store ptr %0, ptr %5, align 8, !tbaa !55
  store i64 %1, ptr %6, align 8, !tbaa !57
  store ptr %2, ptr %7, align 8, !tbaa !93
  call void @llvm.lifetime.start.p0(i64 8, ptr %8) #3
  %13 = load ptr, ptr %5, align 8, !tbaa !55
  %14 = call noundef ptr @_ZNKSt7__cxx1112basic_stringIcSt11char_traitsIcESaIcEE5c_strEv(ptr noundef nonnull align 8 dereferenceable(32) %13) #3
  store ptr %14, ptr %8, align 8, !tbaa !56
  call void @llvm.lifetime.start.p0(i64 4, ptr %9) #3
  store i32 10, ptr %9, align 4, !tbaa !68
  %15 = load ptr, ptr %8, align 8, !tbaa !56
  %16 = getelementptr inbounds i8, ptr %15, i64 0
  %17 = load i8, ptr %16, align 1, !tbaa !53
  %18 = sext i8 %17 to i32
  %19 = icmp eq i32 %18, 48
  br i1 %19, label %20, label %37

20:                                               ; preds = %3
  %21 = load ptr, ptr %8, align 8, !tbaa !56
  %22 = getelementptr inbounds i8, ptr %21, i64 1
  %23 = load i8, ptr %22, align 1, !tbaa !53
  %24 = sext i8 %23 to i32
  %25 = icmp eq i32 %24, 120
  br i1 %25, label %32, label %26

26:                                               ; preds = %20
  %27 = load ptr, ptr %8, align 8, !tbaa !56
  %28 = getelementptr inbounds i8, ptr %27, i64 1
  %29 = load i8, ptr %28, align 1, !tbaa !53
  %30 = sext i8 %29 to i32
  %31 = icmp eq i32 %30, 88
  br i1 %31, label %32, label %35

32:                                               ; preds = %26, %20
  store i32 16, ptr %9, align 4, !tbaa !68
  %33 = load ptr, ptr %8, align 8, !tbaa !56
  %34 = getelementptr inbounds i8, ptr %33, i64 2
  store ptr %34, ptr %8, align 8, !tbaa !56
  br label %36

35:                                               ; preds = %26
  store i32 8, ptr %9, align 4, !tbaa !68
  br label %36

36:                                               ; preds = %35, %32
  br label %37

37:                                               ; preds = %36, %3
  call void @llvm.lifetime.start.p0(i64 8, ptr %10) #3
  store i64 0, ptr %10, align 8, !tbaa !57
  br label %38

38:                                               ; preds = %81, %37
  %39 = load ptr, ptr %8, align 8, !tbaa !56
  %40 = load i8, ptr %39, align 1, !tbaa !53
  %41 = sext i8 %40 to i32
  %42 = icmp ne i32 %41, 0
  br i1 %42, label %43, label %84

43:                                               ; preds = %38
  call void @llvm.lifetime.start.p0(i64 4, ptr %11) #3
  %44 = load ptr, ptr %8, align 8, !tbaa !56
  %45 = load i8, ptr %44, align 1, !tbaa !53
  %46 = call noundef i32 @_ZN6google8protobuf2io12_GLOBAL__N_110DigitValueEc(i8 noundef signext %45)
  store i32 %46, ptr %11, align 4, !tbaa !68
  %47 = load i32, ptr %11, align 4, !tbaa !68
  %48 = icmp slt i32 %47, 0
  br i1 %48, label %53, label %49

49:                                               ; preds = %43
  %50 = load i32, ptr %11, align 4, !tbaa !68
  %51 = load i32, ptr %9, align 4, !tbaa !68
  %52 = icmp sge i32 %50, %51
  br i1 %52, label %53, label %54

53:                                               ; preds = %49, %43
  store i1 false, ptr %4, align 1
  store i32 1, ptr %12, align 4
  br label %78

54:                                               ; preds = %49
  %55 = load i32, ptr %11, align 4, !tbaa !68
  %56 = sext i32 %55 to i64
  %57 = load i64, ptr %6, align 8, !tbaa !57
  %58 = icmp ugt i64 %56, %57
  br i1 %58, label %69, label %59

59:                                               ; preds = %54
  %60 = load i64, ptr %10, align 8, !tbaa !57
  %61 = load i64, ptr %6, align 8, !tbaa !57
  %62 = load i32, ptr %11, align 4, !tbaa !68
  %63 = sext i32 %62 to i64
  %64 = sub i64 %61, %63
  %65 = load i32, ptr %9, align 4, !tbaa !68
  %66 = sext i32 %65 to i64
  %67 = udiv i64 %64, %66
  %68 = icmp ugt i64 %60, %67
  br i1 %68, label %69, label %70

69:                                               ; preds = %59, %54
  store i1 false, ptr %4, align 1
  store i32 1, ptr %12, align 4
  br label %78

70:                                               ; preds = %59
  %71 = load i64, ptr %10, align 8, !tbaa !57
  %72 = load i32, ptr %9, align 4, !tbaa !68
  %73 = sext i32 %72 to i64
  %74 = mul i64 %71, %73
  %75 = load i32, ptr %11, align 4, !tbaa !68
  %76 = sext i32 %75 to i64
  %77 = add i64 %74, %76
  store i64 %77, ptr %10, align 8, !tbaa !57
  store i32 0, ptr %12, align 4
  br label %78

78:                                               ; preds = %70, %69, %53
  call void @llvm.lifetime.end.p0(i64 4, ptr %11) #3
  %79 = load i32, ptr %12, align 4
  switch i32 %79, label %87 [
    i32 0, label %80
  ]

80:                                               ; preds = %78
  br label %81

81:                                               ; preds = %80
  %82 = load ptr, ptr %8, align 8, !tbaa !56
  %83 = getelementptr inbounds nuw i8, ptr %82, i32 1
  store ptr %83, ptr %8, align 8, !tbaa !56
  br label %38, !llvm.loop !95

84:                                               ; preds = %38
  %85 = load i64, ptr %10, align 8, !tbaa !57
  %86 = load ptr, ptr %7, align 8, !tbaa !93
  store i64 %85, ptr %86, align 8, !tbaa !57
  store i1 true, ptr %4, align 1
  store i32 1, ptr %12, align 4
  br label %87

87:                                               ; preds = %84, %78
  call void @llvm.lifetime.end.p0(i64 8, ptr %10) #3
  call void @llvm.lifetime.end.p0(i64 4, ptr %9) #3
  call void @llvm.lifetime.end.p0(i64 8, ptr %8) #3
  %88 = load i1, ptr %4, align 1
  ret i1 %88
}