; Function Attrs: mustprogress nofree norecurse nosync nounwind memory(read, argmem: readwrite, inaccessiblemem: none) uwtable
define hidden noundef zeroext i1 @_ZN6google8protobuf2io9Tokenizer12ParseIntegerERKNSt7__cxx1112basic_stringIcSt11char_traitsIcESaIcEEEmPm(ptr noundef nonnull readonly align 8 captures(none) dereferenceable(32) %0, i64 noundef %1, ptr noundef writeonly captures(none) %2) local_unnamed_addr #13 align 2 {
  %4 = load ptr, ptr %0, align 8, !tbaa !48
  %5 = load i8, ptr %4, align 1, !tbaa !12
  %6 = icmp eq i8 %5, 48
  br i1 %6, label %7, label %12

7:                                                ; preds = %3
  %8 = getelementptr inbounds nuw i8, ptr %4, i64 1
  %9 = load i8, ptr %8, align 1, !tbaa !12
  switch i8 %9, label %.lr.ph [
    i8 120, label %10
    i8 88, label %10
  ]

10:                                               ; preds = %7, %7
  %11 = getelementptr inbounds nuw i8, ptr %4, i64 2
  %.pre = load i8, ptr %11, align 1, !tbaa !12
  br label %12

12:                                               ; preds = %10, %3
  %13 = phi i8 [ %.pre, %10 ], [ %5, %3 ]
  %.027 = phi ptr [ %11, %10 ], [ %4, %3 ]
  %.026 = phi i32 [ 16, %10 ], [ 10, %3 ]
  %.not39 = icmp eq i8 %13, 0
  br i1 %.not39, label %._crit_edge, label %.lr.ph

.lr.ph:                                           ; preds = %7, %12
  %.02649 = phi i32 [ %.026, %12 ], [ 8, %7 ]
  %.02748 = phi ptr [ %.027, %12 ], [ %4, %7 ]
  %14 = phi i8 [ %13, %12 ], [ 48, %7 ]
  %15 = zext nneg i32 %.02649 to i64
  br label %16

16:                                               ; preds = %.lr.ph, %36
  %17 = phi i8 [ %14, %.lr.ph ], [ %40, %36 ]
  %.02441 = phi i64 [ 0, %.lr.ph ], [ %38, %36 ]
  %.12840 = phi ptr [ %.02748, %.lr.ph ], [ %39, %36 ]
  %18 = sext i8 %17 to i32
  %19 = add i8 %17, -48
  %or.cond.i = icmp ult i8 %19, 10
  br i1 %or.cond.i, label %20, label %22

20:                                               ; preds = %16
  %21 = add nsw i32 %18, -48
  br label %_ZN6google8protobuf2io12_GLOBAL__N_110DigitValueEc.exit

22:                                               ; preds = %16
  %23 = add i8 %17, -97
  %or.cond5.i = icmp ult i8 %23, 26
  br i1 %or.cond5.i, label %24, label %26

24:                                               ; preds = %22
  %25 = add nsw i32 %18, -87
  br label %_ZN6google8protobuf2io12_GLOBAL__N_110DigitValueEc.exit

26:                                               ; preds = %22
  %27 = add i8 %17, -65
  %or.cond8.i = icmp ult i8 %27, 26
  %28 = add nsw i32 %18, -55
  %spec.select.i = select i1 %or.cond8.i, i32 %28, i32 -1
  br label %_ZN6google8protobuf2io12_GLOBAL__N_110DigitValueEc.exit

_ZN6google8protobuf2io12_GLOBAL__N_110DigitValueEc.exit: ; preds = %20, %24, %26
  %.0.i = phi i32 [ %21, %20 ], [ %25, %24 ], [ %spec.select.i, %26 ]
  %or.cond = icmp ult i32 %.0.i, %.02649
  br i1 %or.cond, label %29, label %.thread

29:                                               ; preds = %_ZN6google8protobuf2io12_GLOBAL__N_110DigitValueEc.exit
  %30 = zext nneg i32 %.0.i to i64
  %31 = icmp ult i64 %1, %30
  br i1 %31, label %.thread, label %32

32:                                               ; preds = %29
  %33 = sub nuw i64 %1, %30
  %34 = udiv i64 %33, %15
  %35 = icmp ugt i64 %.02441, %34
  br i1 %35, label %.thread, label %36

36:                                               ; preds = %32
  %37 = mul i64 %.02441, %15
  %38 = add i64 %37, %30
  %39 = getelementptr inbounds nuw i8, ptr %.12840, i64 1
  %40 = load i8, ptr %39, align 1, !tbaa !12
  %.not = icmp eq i8 %40, 0
  br i1 %.not, label %._crit_edge, label %16, !llvm.loop !82

._crit_edge:                                      ; preds = %36, %12
  %.024.lcssa = phi i64 [ 0, %12 ], [ %38, %36 ]
  store i64 %.024.lcssa, ptr %2, align 8, !tbaa !51
  br label %.thread

.thread:                                          ; preds = %29, %32, %_ZN6google8protobuf2io12_GLOBAL__N_110DigitValueEc.exit, %._crit_edge
  %.not37 = phi i1 [ true, %._crit_edge ], [ false, %_ZN6google8protobuf2io12_GLOBAL__N_110DigitValueEc.exit ], [ false, %32 ], [ false, %29 ]
  ret i1 %.not37
}